target datalayout = "e-m:e-p270:32:32-p271:32:32-p272:64:64-i64:64-i128:128-f80:128-n8:16:32:64-S128"
target triple = "x86_64-pc-linux-gnu"

%struct._packet_info = type { ptr, ptr, i32, i32, %struct.nstime_t, %struct.nstime_t, %struct.nstime_t, i8, ptr, ptr, ptr, ptr, %struct._address, %struct._address, %struct._address, %struct._address, %struct._address, %struct._address, i32, ptr, i8, [3 x i8], %struct.anon, i32, i32, i32, i32, ptr, i8, ptr, ptr, i16, i16, i32, i32, i16, i32, i32, ptr, ptr, ptr, i8, i8, i16, i16, i16, i32, i16, i16, ptr, ptr, ptr, ptr, ptr, i32, i32 }
%struct.nstime_t = type { i64, i32 }
%struct._address = type { i32, i32, ptr, ptr }
%struct.anon = type { i8, [3 x i8] }

@.str.215 = private unnamed_addr constant [16 x i8] c"Unknown type %u\00", align 1
@.str.257 = private unnamed_addr constant [2 x i8] c" \00", align 1
@.str.258 = private unnamed_addr constant [9 x i8] c"(MMS %s)\00", align 1

; Function Attrs: null_pointer_is_valid sspstrong uwtable
define internal i32 @dissect_mmse_encapsulated(ptr noundef %0, ptr noundef %1, ptr noundef %2, ptr noundef %3) #0 {
  %5 = alloca ptr, align 8
  %6 = alloca ptr, align 8
  %7 = alloca ptr, align 8
  %8 = alloca ptr, align 8
  %9 = alloca i8, align 1
  %10 = alloca ptr, align 8
  store ptr %0, ptr %5, align 8
  store ptr %1, ptr %6, align 8
  store ptr %2, ptr %7, align 8
  store ptr %3, ptr %8, align 8
  call void @llvm.lifetime.start.p0(i64 1, ptr %9) #5
  call void @llvm.lifetime.start.p0(i64 8, ptr %10) #5
  %11 = load ptr, ptr %5, align 8
  %12 = call zeroext i8 @tvb_get_uint8(ptr noundef %11, i32 noundef 1)
  store i8 %12, ptr %9, align 1
  %13 = load i8, ptr %9, align 1
  %14 = zext i8 %13 to i32
  %15 = call ptr @val_to_str(i32 noundef %14, ptr noundef @vals_message_type, ptr noundef @.str.215)
  store ptr %15, ptr %10, align 8
  %16 = load ptr, ptr %6, align 8
  %17 = getelementptr inbounds nuw %struct._packet_info, ptr %16, i32 0, i32 1
  %18 = load ptr, ptr %17, align 8
  %19 = load ptr, ptr %10, align 8
  call void (ptr, i32, ptr, ptr, ...) @col_append_sep_fstr(ptr noundef %18, i32 noundef 25, ptr noundef @.str.257, ptr noundef @.str.258, ptr noundef %19)
  %20 = load ptr, ptr %5, align 8
  %21 = load ptr, ptr %6, align 8
  %22 = load ptr, ptr %7, align 8
  %23 = load i8, ptr %9, align 1
  %24 = load ptr, ptr %10, align 8
  call void @dissect_mmse(ptr noundef %20, ptr noundef %21, ptr noundef %22, i8 noundef zeroext %23, ptr noundef %24)
  %25 = load ptr, ptr %5, align 8
  %26 = call i32 @tvb_captured_length(ptr noundef %25)
  call void @llvm.lifetime.end.p0(i64 8, ptr %10) #5
  call void @llvm.lifetime.end.p0(i64 1, ptr %9) #5
  ret i32 %26
}