; Function Attrs: null_pointer_is_valid sspstrong uwtable
define internal i32 @dissect_mmse_encapsulated(ptr noundef %0, ptr noundef %1, ptr noundef %2, ptr readnone captures(none) %3) #0 {
  %5 = tail call zeroext i8 @tvb_get_uint8(ptr noundef %0, i32 noundef 1)
  %6 = zext i8 %5 to i32
  %7 = tail call ptr @val_to_str(i32 noundef %6, ptr noundef nonnull @vals_message_type, ptr noundef nonnull @.str.215)
  %8 = getelementptr inbounds nuw i8, ptr %1, i64 8
  %9 = load ptr, ptr %8, align 8
  tail call void (ptr, i32, ptr, ptr, ...) @col_append_sep_fstr(ptr noundef %9, i32 noundef 25, ptr noundef nonnull @.str.257, ptr noundef nonnull @.str.258, ptr noundef %7)
  tail call fastcc void @dissect_mmse(ptr noundef %0, ptr noundef %1, ptr noundef %2, i8 noundef zeroext %5, ptr noundef %7)
  %10 = tail call i32 @tvb_captured_length(ptr noundef %0)
  ret i32 %10
}